target datalayout = "e-m:e-p270:32:32-p271:32:32-p272:64:64-i64:64-i128:128-f80:128-n8:16:32:64-S128"
target triple = "x86_64-pc-linux-gnu"

%struct.stbtt_vertex = type { i16, i16, i16, i16, i16, i16, i8, i8 }

; Function Attrs: nounwind uwtable
define void @stbtt_setvertex(ptr noundef %0, i8 noundef zeroext %1, i32 noundef %2, i32 noundef %3, i32 noundef %4, i32 noundef %5) #0 {
  %7 = alloca ptr, align 8
  %8 = alloca i8, align 1
  %9 = alloca i32, align 4
  %10 = alloca i32, align 4
  %11 = alloca i32, align 4
  %12 = alloca i32, align 4
  store ptr %0, ptr %7, align 8, !tbaa !3
  store i8 %1, ptr %8, align 1, !tbaa !13
  store i32 %2, ptr %9, align 4, !tbaa !14
  store i32 %3, ptr %10, align 4, !tbaa !14
  store i32 %4, ptr %11, align 4, !tbaa !14
  store i32 %5, ptr %12, align 4, !tbaa !14
  %13 = load i8, ptr %8, align 1, !tbaa !13
  %14 = load ptr, ptr %7, align 8, !tbaa !3
  %15 = getelementptr inbounds nuw %struct.stbtt_vertex, ptr %14, i32 0, i32 6
  store i8 %13, ptr %15, align 2, !tbaa !50
  %16 = load i32, ptr %9, align 4, !tbaa !14
  %17 = trunc i32 %16 to i16
  %18 = load ptr, ptr %7, align 8, !tbaa !3
  %19 = getelementptr inbounds nuw %struct.stbtt_vertex, ptr %18, i32 0, i32 0
  store i16 %17, ptr %19, align 2, !tbaa !52
  %20 = load i32, ptr %10, align 4, !tbaa !14
  %21 = trunc i32 %20 to i16
  %22 = load ptr, ptr %7, align 8, !tbaa !3
  %23 = getelementptr inbounds nuw %struct.stbtt_vertex, ptr %22, i32 0, i32 1
  store i16 %21, ptr %23, align 2, !tbaa !53
  %24 = load i32, ptr %11, align 4, !tbaa !14
  %25 = trunc i32 %24 to i16
  %26 = load ptr, ptr %7, align 8, !tbaa !3
  %27 = getelementptr inbounds nuw %struct.stbtt_vertex, ptr %26, i32 0, i32 2
  store i16 %25, ptr %27, align 2, !tbaa !54
  %28 = load i32, ptr %12, align 4, !tbaa !14
  %29 = trunc i32 %28 to i16
  %30 = load ptr, ptr %7, align 8, !tbaa !3
  %31 = getelementptr inbounds nuw %struct.stbtt_vertex, ptr %30, i32 0, i32 3
  store i16 %29, ptr %31, align 2, !tbaa !55
  ret void
}

; Function Attrs: nounwind uwtable
define i32 @stbtt__close_shape(ptr noundef %0, i32 noundef %1, i32 noundef %2, i32 noundef %3, i32 noundef %4, i32 noundef %5, i32 noundef %6, i32 noundef %7, i32 noundef %8, i32 noundef %9) #0 {
  %11 = alloca ptr, align 8
  %12 = alloca i32, align 4
  %13 = alloca i32, align 4
  %14 = alloca i32, align 4
  %15 = alloca i32, align 4
  %16 = alloca i32, align 4
  %17 = alloca i32, align 4
  %18 = alloca i32, align 4
  %19 = alloca i32, align 4
  %20 = alloca i32, align 4
  store ptr %0, ptr %11, align 8, !tbaa !3
  store i32 %1, ptr %12, align 4, !tbaa !14
  store i32 %2, ptr %13, align 4, !tbaa !14
  store i32 %3, ptr %14, align 4, !tbaa !14
  store i32 %4, ptr %15, align 4, !tbaa !14
  store i32 %5, ptr %16, align 4, !tbaa !14
  store i32 %6, ptr %17, align 4, !tbaa !14
  store i32 %7, ptr %18, align 4, !tbaa !14
  store i32 %8, ptr %19, align 4, !tbaa !14
  store i32 %9, ptr %20, align 4, !tbaa !14
  %21 = load i32, ptr %14, align 4, !tbaa !14
  %22 = icmp ne i32 %21, 0
  br i1 %22, label %23, label %52

23:                                               ; preds = %10
  %24 = load i32, ptr %13, align 4, !tbaa !14
  %25 = icmp ne i32 %24, 0
  br i1 %25, label %26, label %42

26:                                               ; preds = %23
  %27 = load ptr, ptr %11, align 8, !tbaa !3
  %28 = load i32, ptr %12, align 4, !tbaa !14
  %29 = add nsw i32 %28, 1
  store i32 %29, ptr %12, align 4, !tbaa !14
  %30 = sext i32 %28 to i64
  %31 = getelementptr inbounds %struct.stbtt_vertex, ptr %27, i64 %30
  %32 = load i32, ptr %19, align 4, !tbaa !14
  %33 = load i32, ptr %17, align 4, !tbaa !14
  %34 = add nsw i32 %32, %33
  %35 = ashr i32 %34, 1
  %36 = load i32, ptr %20, align 4, !tbaa !14
  %37 = load i32, ptr %18, align 4, !tbaa !14
  %38 = add nsw i32 %36, %37
  %39 = ashr i32 %38, 1
  %40 = load i32, ptr %19, align 4, !tbaa !14
  %41 = load i32, ptr %20, align 4, !tbaa !14
  call void @stbtt_setvertex(ptr noundef %31, i8 noundef zeroext 3, i32 noundef %35, i32 noundef %39, i32 noundef %40, i32 noundef %41)
  br label %42

42:                                               ; preds = %26, %23
  %43 = load ptr, ptr %11, align 8, !tbaa !3
  %44 = load i32, ptr %12, align 4, !tbaa !14
  %45 = add nsw i32 %44, 1
  store i32 %45, ptr %12, align 4, !tbaa !14
  %46 = sext i32 %44 to i64
  %47 = getelementptr inbounds %struct.stbtt_vertex, ptr %43, i64 %46
  %48 = load i32, ptr %15, align 4, !tbaa !14
  %49 = load i32, ptr %16, align 4, !tbaa !14
  %50 = load i32, ptr %17, align 4, !tbaa !14
  %51 = load i32, ptr %18, align 4, !tbaa !14
  call void @stbtt_setvertex(ptr noundef %47, i8 noundef zeroext 3, i32 noundef %48, i32 noundef %49, i32 noundef %50, i32 noundef %51)
  br label %74

52:                                               ; preds = %10
  %53 = load i32, ptr %13, align 4, !tbaa !14
  %54 = icmp ne i32 %53, 0
  br i1 %54, label %55, label %65

55:                                               ; preds = %52
  %56 = load ptr, ptr %11, align 8, !tbaa !3
  %57 = load i32, ptr %12, align 4, !tbaa !14
  %58 = add nsw i32 %57, 1
  store i32 %58, ptr %12, align 4, !tbaa !14
  %59 = sext i32 %57 to i64
  %60 = getelementptr inbounds %struct.stbtt_vertex, ptr %56, i64 %59
  %61 = load i32, ptr %15, align 4, !tbaa !14
  %62 = load i32, ptr %16, align 4, !tbaa !14
  %63 = load i32, ptr %19, align 4, !tbaa !14
  %64 = load i32, ptr %20, align 4, !tbaa !14
  call void @stbtt_setvertex(ptr noundef %60, i8 noundef zeroext 3, i32 noundef %61, i32 noundef %62, i32 noundef %63, i32 noundef %64)
  br label %73

65:                                               ; preds = %52
  %66 = load ptr, ptr %11, align 8, !tbaa !3
  %67 = load i32, ptr %12, align 4, !tbaa !14
  %68 = add nsw i32 %67, 1
  store i32 %68, ptr %12, align 4, !tbaa !14
  %69 = sext i32 %67 to i64
  %70 = getelementptr inbounds %struct.stbtt_vertex, ptr %66, i64 %69
  %71 = load i32, ptr %15, align 4, !tbaa !14
  %72 = load i32, ptr %16, align 4, !tbaa !14
  call void @stbtt_setvertex(ptr noundef %70, i8 noundef zeroext 2, i32 noundef %71, i32 noundef %72, i32 noundef 0, i32 noundef 0)
  br label %73

73:                                               ; preds = %65, %55
  br label %74

74:                                               ; preds = %73, %42
  %75 = load i32, ptr %12, align 4, !tbaa !14
  ret i32 %75
}