; Function Attrs: mustprogress nofree norecurse nosync nounwind willreturn memory(argmem: write) uwtable
define range(i32 -2147483647, -2147483648) i32 @stbtt__close_shape(ptr noundef writeonly captures(none) %0, i32 noundef %1, i32 noundef %2, i32 noundef %3, i32 noundef %4, i32 noundef %5, i32 noundef %6, i32 noundef %7, i32 noundef %8, i32 noundef %9) local_unnamed_addr #12 {
  %.not = icmp eq i32 %3, 0
  %.not27 = icmp eq i32 %2, 0
  br i1 %.not, label %38, label %11

11:                                               ; preds = %10
  br i1 %.not27, label %28, label %12

12:                                               ; preds = %11
  %13 = add nsw i32 %1, 1
  %14 = sext i32 %1 to i64
  %15 = getelementptr inbounds %struct.stbtt_vertex, ptr %0, i64 %14
  %16 = add nsw i32 %8, %6
  %17 = lshr i32 %16, 1
  %18 = add nsw i32 %9, %7
  %19 = lshr i32 %18, 1
  %20 = getelementptr inbounds nuw i8, ptr %15, i64 12
  store i8 3, ptr %20, align 2, !tbaa !45
  %21 = trunc i32 %17 to i16
  store i16 %21, ptr %15, align 2, !tbaa !48
  %22 = trunc i32 %19 to i16
  %23 = getelementptr inbounds nuw i8, ptr %15, i64 2
  store i16 %22, ptr %23, align 2, !tbaa !49
  %24 = trunc i32 %8 to i16
  %25 = getelementptr inbounds nuw i8, ptr %15, i64 4
  store i16 %24, ptr %25, align 2, !tbaa !50
  %26 = trunc i32 %9 to i16
  %27 = getelementptr inbounds nuw i8, ptr %15, i64 6
  store i16 %26, ptr %27, align 2, !tbaa !51
  br label %28

28:                                               ; preds = %12, %11
  %.0 = phi i32 [ %13, %12 ], [ %1, %11 ]
  %29 = sext i32 %.0 to i64
  %30 = getelementptr inbounds %struct.stbtt_vertex, ptr %0, i64 %29
  %31 = getelementptr inbounds nuw i8, ptr %30, i64 12
  store i8 3, ptr %31, align 2, !tbaa !45
  %32 = trunc i32 %4 to i16
  store i16 %32, ptr %30, align 2, !tbaa !48
  %33 = trunc i32 %5 to i16
  %34 = getelementptr inbounds nuw i8, ptr %30, i64 2
  store i16 %33, ptr %34, align 2, !tbaa !49
  %35 = trunc i32 %6 to i16
  %36 = getelementptr inbounds nuw i8, ptr %30, i64 4
  store i16 %35, ptr %36, align 2, !tbaa !50
  %37 = trunc i32 %7 to i16
  br label %51

38:                                               ; preds = %10
  %39 = sext i32 %1 to i64
  %40 = getelementptr inbounds %struct.stbtt_vertex, ptr %0, i64 %39
  %41 = getelementptr inbounds nuw i8, ptr %40, i64 12
  %42 = trunc i32 %4 to i16
  %43 = trunc i32 %5 to i16
  %44 = getelementptr inbounds nuw i8, ptr %40, i64 2
  br i1 %.not27, label %49, label %45

45:                                               ; preds = %38
  store i8 3, ptr %41, align 2, !tbaa !45
  store i16 %42, ptr %40, align 2, !tbaa !48
  store i16 %43, ptr %44, align 2, !tbaa !49
  %46 = trunc i32 %8 to i16
  %47 = getelementptr inbounds nuw i8, ptr %40, i64 4
  store i16 %46, ptr %47, align 2, !tbaa !50
  %48 = trunc i32 %9 to i16
  br label %51

49:                                               ; preds = %38
  store i8 2, ptr %41, align 2, !tbaa !45
  store i16 %42, ptr %40, align 2, !tbaa !48
  store i16 %43, ptr %44, align 2, !tbaa !49
  %50 = getelementptr inbounds nuw i8, ptr %40, i64 4
  store i16 0, ptr %50, align 2, !tbaa !50
  br label %51

51:                                               ; preds = %45, %49, %28
  %52 = phi i64 [ %39, %45 ], [ %39, %49 ], [ %29, %28 ]
  %.sink = phi i16 [ %48, %45 ], [ 0, %49 ], [ %37, %28 ]
  %.1.in = phi i32 [ %1, %45 ], [ %1, %49 ], [ %.0, %28 ]
  %53 = getelementptr inbounds %struct.stbtt_vertex, ptr %0, i64 %52, i32 3
  store i16 %.sink, ptr %53, align 2, !tbaa !51
  %.1 = add nsw i32 %.1.in, 1
  ret i32 %.1
}